; Function Attrs: mustprogress uwtable
define void @_ZN5faiss11IndexFlat1D18update_permutationEv(ptr noundef nonnull align 8 dereferenceable(128) %0) local_unnamed_addr #2 align 2 personality ptr @__gxx_personality_v0 {
  %2 = getelementptr inbounds nuw i8, ptr %0, i64 104
  %3 = getelementptr inbounds nuw i8, ptr %0, i64 16
  %4 = load i64, ptr %3, align 8, !tbaa !37
  %5 = getelementptr inbounds nuw i8, ptr %0, i64 112
  %6 = load ptr, ptr %5, align 8, !tbaa !92
  %7 = load ptr, ptr %2, align 8, !tbaa !77
  %8 = ptrtoint ptr %6 to i64
  %9 = ptrtoint ptr %7 to i64
  %10 = sub i64 %8, %9
  %11 = ashr exact i64 %10, 3
  %12 = icmp ugt i64 %4, %11
  br i1 %12, label %13, label %15

13:                                               ; preds = %1
  %14 = sub nuw i64 %4, %11
  tail call void @_ZNSt6vectorIlSaIlEE17_M_default_appendEm(ptr noundef nonnull align 8 dereferenceable(24) %2, i64 noundef %14)
  %.pre = load i64, ptr %3, align 8, !tbaa !37
  br label %_ZNSt6vectorIlSaIlEE6resizeEm.exit

15:                                               ; preds = %1
  %16 = icmp ult i64 %4, %11
  br i1 %16, label %17, label %_ZNSt6vectorIlSaIlEE6resizeEm.exit

17:                                               ; preds = %15
  %18 = getelementptr inbounds nuw i64, ptr %7, i64 %4
  %.not.i.i = icmp eq ptr %6, %18
  br i1 %.not.i.i, label %_ZNSt6vectorIlSaIlEE6resizeEm.exit, label %19

19:                                               ; preds = %17
  store ptr %18, ptr %5, align 8, !tbaa !92
  br label %_ZNSt6vectorIlSaIlEE6resizeEm.exit

_ZNSt6vectorIlSaIlEE6resizeEm.exit:               ; preds = %13, %15, %17, %19
  %20 = phi i64 [ %.pre, %13 ], [ %4, %15 ], [ %4, %17 ], [ %4, %19 ]
  %21 = icmp slt i64 %20, 1000000
  %22 = getelementptr inbounds nuw i8, ptr %0, i64 48
  %23 = load ptr, ptr %22, align 8, !tbaa !7
  %24 = load ptr, ptr %2, align 8, !tbaa !77
  br i1 %21, label %25, label %26

25:                                               ; preds = %_ZNSt6vectorIlSaIlEE6resizeEm.exit
  tail call void @_ZN5faiss12fvec_argsortEmPKfPm(i64 noundef %20, ptr noundef %23, ptr noundef %24)
  br label %27

26:                                               ; preds = %_ZNSt6vectorIlSaIlEE6resizeEm.exit
  tail call void @_ZN5faiss21fvec_argsort_parallelEmPKfPm(i64 noundef %20, ptr noundef %23, ptr noundef %24)
  br label %27

27:                                               ; preds = %26, %25
  ret void
}